(lp0
(S'2012-13'
p1
VN.C. A&T
p2
VLiberty
p3
I73
I72
tp4
a(g1
VSt. Mary's (Cal.)
p5
VMiddle Tenn.
p6
I67
I54
tp7
a(g1
VJames Madison
p8
VLIU Brooklyn
p9
I68
I55
tp10
a(g1
VLa Salle
p11
VBoise State
p12
I80
I71
tp13
a(g1
VMichigan State
p14
VValparaiso
p15
I65
I54
tp16
a(g1
VButler
p17
VBucknell
p18
I68
I56
tp19
a(g1
VWichita State
p20
VPittsburgh
p21
I73
I55
tp22
a(g1
VSaint Louis
p23
VNew Mexico St.
p24
I64
I44
tp25
a(g1
VMemphis
p26
VSt. Mary's (Cal.)
p27
I54
I52
tp28
a(g1
VMarquette
p29
VDavidson
p30
I59
I58
tp31
a(g1
VGonzaga
p32
VSouthern Univ.
p33
I64
I58
tp34
a(g1
VOregon
p35
VOklahoma State
p36
I68
I55
tp37
a.